; Function Attrs: mustprogress uwtable
define hidden noundef ptr @_Z34pj_projection_specific_setup_tmercP8PJconsts(ptr noundef %0) local_unnamed_addr #0 {
  %2 = alloca i32, align 4
  call void @llvm.lifetime.start.p0(i64 4, ptr nonnull %2) #11
  %3 = call fastcc noundef zeroext i1 @_ZL17getAlgoFromParamsP8PJconstsR9TMercAlgo(ptr noundef %0, ptr noundef nonnull align 4 dereferenceable(4) %2)
  br i1 %3, label %6, label %4

4:                                                ; preds = %1
  tail call void (ptr, ptr, ...) @_Z14proj_log_errorPK8PJconstsPKcz(ptr noundef %0, ptr noundef nonnull @.str.1)
  %5 = tail call noundef ptr @_Z21pj_default_destructorP8PJconstsi(ptr noundef %0, i32 noundef 1027)
  br label %9

6:                                                ; preds = %1
  %7 = load i32, ptr %2, align 4, !tbaa !3
  %8 = tail call fastcc noundef ptr @_ZL5setupP8PJconsts9TMercAlgo(ptr noundef %0, i32 noundef %7)
  br label %9

9:                                                ; preds = %6, %4
  %.0 = phi ptr [ %8, %6 ], [ %5, %4 ]
  call void @llvm.lifetime.end.p0(i64 4, ptr nonnull %2) #11
  ret ptr %.0
}